; Function Attrs: nounwind uwtable
define noalias nonnull ptr @l_Lean_Server_FileWorker_importAllUnknownIdentifiersCodeAction(ptr noundef %0, ptr noundef %1) local_unnamed_addr #0 {
  tail call void @lean_inc_heartbeat() #5
  %3 = tail call noalias ptr @mi_malloc_small(i64 noundef 16) #5
  %4 = icmp eq ptr %3, null
  br i1 %4, label %5, label %lean_alloc_ctor.exit

5:                                                ; preds = %2
  tail call void @lean_internal_panic_out_of_memory() #6
  unreachable

lean_alloc_ctor.exit:                             ; preds = %2
  %6 = getelementptr inbounds nuw i8, ptr %3, i64 4
  store i32 1, ptr %3, align 4, !tbaa !8
  store i32 16842768, ptr %6, align 4
  %7 = getelementptr inbounds nuw i8, ptr %3, i64 8
  store ptr %1, ptr %7, align 8, !tbaa !4
  %8 = load ptr, ptr @l_Lean_Server_FileWorker_importAllUnknownIdentifiersProvider, align 8, !tbaa !4
  tail call void @lean_inc_heartbeat() #5
  %9 = tail call noalias ptr @mi_malloc_small(i64 noundef 32) #5
  %10 = icmp eq ptr %9, null
  br i1 %10, label %11, label %lean_alloc_ctor.exit32

11:                                               ; preds = %lean_alloc_ctor.exit
  tail call void @lean_internal_panic_out_of_memory() #6
  unreachable

lean_alloc_ctor.exit32:                           ; preds = %lean_alloc_ctor.exit
  %12 = getelementptr inbounds nuw i8, ptr %9, i64 4
  store i32 1, ptr %9, align 4, !tbaa !8
  store i32 196640, ptr %12, align 4
  %13 = getelementptr inbounds nuw i8, ptr %9, i64 8
  store ptr %0, ptr %13, align 8, !tbaa !4
  %14 = getelementptr inbounds nuw i8, ptr %9, i64 16
  store ptr %8, ptr %14, align 8, !tbaa !4
  %15 = getelementptr inbounds nuw i8, ptr %9, i64 24
  store ptr inttoptr (i64 1 to ptr), ptr %15, align 8, !tbaa !4
  %16 = tail call ptr @l___private_Lean_Server_CodeActions_Basic_0__Lean_Server_toJsonCodeActionResolveData____x40_Lean_Server_CodeActions_Basic___hyg_59_(ptr noundef nonnull %9) #5
  tail call void @lean_inc_heartbeat() #5
  %17 = tail call noalias ptr @mi_malloc_small(i64 noundef 16) #5
  %18 = icmp eq ptr %17, null
  br i1 %18, label %19, label %lean_alloc_ctor.exit33

19:                                               ; preds = %lean_alloc_ctor.exit32
  tail call void @lean_internal_panic_out_of_memory() #6
  unreachable

lean_alloc_ctor.exit33:                           ; preds = %lean_alloc_ctor.exit32
  %20 = getelementptr inbounds nuw i8, ptr %17, i64 4
  store i32 1, ptr %17, align 4, !tbaa !8
  store i32 16842768, ptr %20, align 4
  %21 = getelementptr inbounds nuw i8, ptr %17, i64 8
  store ptr %16, ptr %21, align 8, !tbaa !4
  %22 = load ptr, ptr @l_Lean_Server_FileWorker_importAllUnknownIdentifiersCodeAction___closed__1, align 8, !tbaa !4
  tail call void @lean_inc_heartbeat() #5
  %23 = tail call noalias ptr @mi_malloc_small(i64 noundef 88) #5
  %24 = icmp eq ptr %23, null
  br i1 %24, label %25, label %lean_alloc_ctor.exit34

25:                                               ; preds = %lean_alloc_ctor.exit33
  tail call void @lean_internal_panic_out_of_memory() #6
  unreachable

lean_alloc_ctor.exit34:                           ; preds = %lean_alloc_ctor.exit33
  %26 = getelementptr inbounds nuw i8, ptr %23, i64 4
  store i32 1, ptr %23, align 4, !tbaa !8
  store i32 655448, ptr %26, align 4
  %27 = getelementptr inbounds nuw i8, ptr %23, i64 8
  store ptr inttoptr (i64 1 to ptr), ptr %27, align 8, !tbaa !4
  %28 = getelementptr inbounds nuw i8, ptr %23, i64 16
  store ptr inttoptr (i64 1 to ptr), ptr %28, align 8, !tbaa !4
  %29 = getelementptr inbounds nuw i8, ptr %23, i64 24
  store ptr %22, ptr %29, align 8, !tbaa !4
  %30 = getelementptr inbounds nuw i8, ptr %23, i64 32
  store ptr %3, ptr %30, align 8, !tbaa !4
  %31 = getelementptr inbounds nuw i8, ptr %23, i64 40
  store ptr inttoptr (i64 1 to ptr), ptr %31, align 8, !tbaa !4
  %32 = getelementptr inbounds nuw i8, ptr %23, i64 48
  store ptr inttoptr (i64 1 to ptr), ptr %32, align 8, !tbaa !4
  %33 = getelementptr inbounds nuw i8, ptr %23, i64 56
  store ptr inttoptr (i64 1 to ptr), ptr %33, align 8, !tbaa !4
  %34 = getelementptr inbounds nuw i8, ptr %23, i64 64
  store ptr inttoptr (i64 1 to ptr), ptr %34, align 8, !tbaa !4
  %35 = getelementptr inbounds nuw i8, ptr %23, i64 72
  store ptr inttoptr (i64 1 to ptr), ptr %35, align 8, !tbaa !4
  %36 = getelementptr inbounds nuw i8, ptr %23, i64 80
  store ptr %17, ptr %36, align 8, !tbaa !4
  ret ptr %23
}